; Function Attrs: nounwind uwtable
define ptr @l___private_Lean_Compiler_IR_FreeVars_0__Lean_IR_FreeIndices_collectArg(ptr noundef %0, ptr noundef %1, ptr noundef %2) local_unnamed_addr #0 {
  %4 = ptrtoint ptr %0 to i64
  %5 = and i64 %4, 1
  %.not.i22 = icmp eq i64 %5, 0
  br i1 %.not.i22, label %9, label %6

6:                                                ; preds = %3
  %7 = lshr i64 %4, 1
  %8 = trunc i64 %7 to i32
  br label %lean_obj_tag.exit

9:                                                ; preds = %3
  %10 = getelementptr i8, ptr %0, i64 4
  %.val.i = load i32, ptr %10, align 4
  %11 = lshr i32 %.val.i, 24
  br label %lean_obj_tag.exit

lean_obj_tag.exit:                                ; preds = %6, %9
  %.0.i = phi i32 [ %8, %6 ], [ %11, %9 ]
  %12 = icmp eq i32 %.0.i, 0
  br i1 %12, label %13, label %lean_dec.exit

13:                                               ; preds = %lean_obj_tag.exit
  %14 = getelementptr inbounds nuw i8, ptr %0, i64 8
  %15 = load ptr, ptr %14, align 8, !tbaa !13
  %16 = ptrtoint ptr %15 to i64
  %17 = and i64 %16, 1
  %.not = icmp eq i64 %17, 0
  br i1 %.not, label %18, label %lean_inc.exit

18:                                               ; preds = %13
  %.val.i23 = load i32, ptr %15, align 4, !tbaa !4
  %19 = icmp sgt i32 %.val.i23, 0
  br i1 %19, label %20, label %22, !prof !9

20:                                               ; preds = %18
  %21 = add nuw i32 %.val.i23, 1
  store i32 %21, ptr %15, align 4, !tbaa !4
  br label %lean_inc.exit

22:                                               ; preds = %18
  %.not.i24 = icmp eq i32 %.val.i23, 0
  br i1 %.not.i24, label %lean_inc.exit, label %23

23:                                               ; preds = %22
  tail call void @lean_inc_ref_cold(ptr noundef nonnull %15) #3
  br label %lean_inc.exit

lean_inc.exit:                                    ; preds = %23, %22, %20, %13
  br i1 %.not.i22, label %24, label %lean_dec.exit17

24:                                               ; preds = %lean_inc.exit
  %25 = load i32, ptr %0, align 4, !tbaa !4
  %26 = icmp sgt i32 %25, 1
  br i1 %26, label %27, label %29, !prof !9

27:                                               ; preds = %24
  %28 = add nsw i32 %25, -1
  store i32 %28, ptr %0, align 4, !tbaa !4
  br label %lean_dec.exit17

29:                                               ; preds = %24
  %.not.i = icmp eq i32 %25, 0
  br i1 %.not.i, label %lean_dec.exit17, label %30

30:                                               ; preds = %29
  tail call void @lean_dec_ref_cold(ptr noundef nonnull %0) #3
  br label %lean_dec.exit17

lean_dec.exit17:                                  ; preds = %30, %29, %27, %lean_inc.exit
  %31 = tail call ptr @l_Lean_RBNode_findCore___at___private_Lean_Compiler_IR_FreeVars_0__Lean_IR_FreeIndices_collectIndex___spec__1(ptr noundef %1, ptr noundef %15)
  %32 = ptrtoint ptr %31 to i64
  %33 = and i64 %32, 1
  %.not.i25 = icmp eq i64 %33, 0
  br i1 %.not.i25, label %lean_obj_tag.exit28.thread, label %lean_obj_tag.exit28

lean_obj_tag.exit28:                              ; preds = %lean_dec.exit17
  %34 = and i64 %32, 8589934590
  %35 = icmp eq i64 %34, 0
  br i1 %35, label %38, label %lean_dec.exit16

lean_obj_tag.exit28.thread:                       ; preds = %lean_dec.exit17
  %36 = getelementptr i8, ptr %31, i64 4
  %.val.i27 = load i32, ptr %36, align 4
  %37 = icmp ult i32 %.val.i27, 16777216
  br i1 %37, label %38, label %.thread

38:                                               ; preds = %lean_obj_tag.exit28.thread, %lean_obj_tag.exit28
  %39 = tail call ptr @l_Lean_RBNode_insert___at_Lean_IR_mkIndexSet___spec__1(ptr noundef %2, ptr noundef %15, ptr noundef nonnull inttoptr (i64 1 to ptr)) #3
  br label %lean_dec.exit

.thread:                                          ; preds = %lean_obj_tag.exit28.thread
  %40 = load i32, ptr %31, align 4, !tbaa !4
  %41 = icmp sgt i32 %40, 1
  br i1 %41, label %42, label %44, !prof !9

42:                                               ; preds = %.thread
  %43 = add nsw i32 %40, -1
  store i32 %43, ptr %31, align 4, !tbaa !4
  br label %lean_dec.exit16

44:                                               ; preds = %.thread
  %.not.i18 = icmp eq i32 %40, 0
  br i1 %.not.i18, label %lean_dec.exit16, label %45

45:                                               ; preds = %44
  tail call void @lean_dec_ref_cold(ptr noundef nonnull %31) #3
  br label %lean_dec.exit16

lean_dec.exit16:                                  ; preds = %lean_obj_tag.exit28, %45, %44, %42
  br i1 %.not, label %46, label %lean_dec.exit

46:                                               ; preds = %lean_dec.exit16
  %47 = load i32, ptr %15, align 4, !tbaa !4
  %48 = icmp sgt i32 %47, 1
  br i1 %48, label %49, label %51, !prof !9

49:                                               ; preds = %46
  %50 = add nsw i32 %47, -1
  store i32 %50, ptr %15, align 4, !tbaa !4
  br label %lean_dec.exit

51:                                               ; preds = %46
  %.not.i20 = icmp eq i32 %47, 0
  br i1 %.not.i20, label %lean_dec.exit, label %52

52:                                               ; preds = %51
  tail call void @lean_dec_ref_cold(ptr noundef nonnull %15) #3
  br label %lean_dec.exit

lean_dec.exit:                                    ; preds = %lean_dec.exit16, %49, %51, %52, %lean_obj_tag.exit, %38
  %.1 = phi ptr [ %39, %38 ], [ %2, %lean_obj_tag.exit ], [ %2, %52 ], [ %2, %51 ], [ %2, %49 ], [ %2, %lean_dec.exit16 ]
  ret ptr %.1
}